target datalayout = "e-m:e-p270:32:32-p271:32:32-p272:64:64-i64:64-i128:128-f80:128-n8:16:32:64-S128"
target triple = "x86_64-pc-linux-gnu"

%struct.sockaddr = type { i16, [14 x i8] }
%struct.sockaddr_in = type { i16, i16, %struct.in_addr, [8 x i8] }
%struct.in_addr = type { i32 }
%struct.sockaddr_in6 = type { i16, i16, i32, %struct.in6_addr, i32 }
%struct.in6_addr = type { %union.anon }
%union.anon = type { [4 x i32] }

; Function Attrs: inlinehint nounwind uwtable
define internal zeroext i16 @__bswap_16(i16 noundef zeroext %0) #6 {
  %2 = alloca i16, align 2
  store i16 %0, ptr %2, align 2, !tbaa !47
  %3 = load i16, ptr %2, align 2, !tbaa !47
  %4 = zext i16 %3 to i32
  %5 = ashr i32 %4, 8
  %6 = and i32 %5, 255
  %7 = load i16, ptr %2, align 2, !tbaa !47
  %8 = zext i16 %7 to i32
  %9 = and i32 %8, 255
  %10 = shl i32 %9, 8
  %11 = or i32 %6, %10
  %12 = trunc i32 %11 to i16
  ret i16 %12
}

; Function Attrs: nounwind uwtable
define i32 @pmix_net_get_port(ptr noundef %0) #0 {
  %2 = alloca i32, align 4
  %3 = alloca ptr, align 8
  store ptr %0, ptr %3, align 8, !tbaa !26
  %4 = load ptr, ptr %3, align 8, !tbaa !26
  %5 = getelementptr inbounds nuw %struct.sockaddr, ptr %4, i32 0, i32 0
  %6 = load i16, ptr %5, align 2, !tbaa !27
  %7 = zext i16 %6 to i32
  switch i32 %7, label %20 [
    i32 2, label %8
    i32 10, label %14
  ]

8:                                                ; preds = %1
  %9 = load ptr, ptr %3, align 8, !tbaa !26
  %10 = getelementptr inbounds nuw %struct.sockaddr_in, ptr %9, i32 0, i32 1
  %11 = load i16, ptr %10, align 2, !tbaa !43
  %12 = call zeroext i16 @__bswap_16(i16 noundef zeroext %11)
  %13 = zext i16 %12 to i32
  store i32 %13, ptr %2, align 4
  br label %21

14:                                               ; preds = %1
  %15 = load ptr, ptr %3, align 8, !tbaa !26
  %16 = getelementptr inbounds nuw %struct.sockaddr_in6, ptr %15, i32 0, i32 1
  %17 = load i16, ptr %16, align 2, !tbaa !44
  %18 = call zeroext i16 @__bswap_16(i16 noundef zeroext %17)
  %19 = zext i16 %18 to i32
  store i32 %19, ptr %2, align 4
  br label %21

20:                                               ; preds = %1
  store i32 -1, ptr %2, align 4
  br label %21

21:                                               ; preds = %20, %14, %8
  %22 = load i32, ptr %2, align 4
  ret i32 %22
}