; Function Attrs: mustprogress nofree norecurse nosync nounwind willreturn memory(argmem: read) uwtable
define range(i32 -1, 65536) i32 @pmix_net_get_port(ptr noundef readonly captures(none) %0) local_unnamed_addr #13 {
  %2 = load i16, ptr %0, align 2, !tbaa !22
  switch i16 %2, label %6 [
    i16 2, label %.sink.split
    i16 10, label %.sink.split
  ]

.sink.split:                                      ; preds = %1, %1
  %3 = getelementptr inbounds nuw i8, ptr %0, i64 2
  %4 = load i16, ptr %3, align 2, !tbaa !30
  %rev.i3 = tail call noundef i16 @llvm.bswap.i16(i16 %4)
  %5 = zext i16 %rev.i3 to i32
  br label %6

6:                                                ; preds = %.sink.split, %1
  %.0 = phi i32 [ -1, %1 ], [ %5, %.sink.split ]
  ret i32 %.0
}